target datalayout = "e-m:e-p270:32:32-p271:32:32-p272:64:64-i64:64-i128:128-f80:128-n8:16:32:64-S128"
target triple = "x86_64-pc-linux-gnu"

%"class.std::__cxx11::basic_string" = type { %"struct.std::__cxx11::basic_string<char>::_Alloc_hider", i64, %union.anon }
%"struct.std::__cxx11::basic_string<char>::_Alloc_hider" = type { ptr }
%union.anon = type { i64, [8 x i8] }

@.str.4 = private unnamed_addr constant [13 x i8] c"%s/%s.XXXXXX\00", align 1

; Function Attrs: mustprogress uwtable
define void @_ZN32pxrInternal_v0_24__pxrReserved__17ArchMakeTmpSubdirERKNSt7__cxx1112basic_stringIcSt11char_traitsIcESaIcEEES7_(ptr dead_on_unwind noalias writable sret(%"class.std::__cxx11::basic_string") align 8 %0, ptr noundef nonnull align 8 dereferenceable(32) %1, ptr noundef nonnull align 8 dereferenceable(32) %2) #0 personality ptr @__gxx_personality_v0 {
  %4 = alloca ptr, align 8
  %5 = alloca ptr, align 8
  %6 = alloca ptr, align 8
  %7 = alloca i1, align 1
  %8 = alloca %"class.std::__cxx11::basic_string", align 8
  %9 = alloca ptr, align 8
  %10 = alloca i32, align 4
  %11 = alloca ptr, align 8
  %12 = alloca ptr, align 8
  store ptr %0, ptr %4, align 8
  store ptr %1, ptr %5, align 8
  store ptr %2, ptr %6, align 8
  store i1 false, ptr %7, align 1
  call void @_ZNSt7__cxx1112basic_stringIcSt11char_traitsIcESaIcEEC1Ev(ptr noundef nonnull align 8 dereferenceable(32) %0) #6
  %13 = load ptr, ptr %5, align 8
  %14 = call noundef ptr @_ZNKSt7__cxx1112basic_stringIcSt11char_traitsIcESaIcEE5c_strEv(ptr noundef nonnull align 8 dereferenceable(32) %13) #6
  %15 = load ptr, ptr %6, align 8
  %16 = call noundef ptr @_ZNKSt7__cxx1112basic_stringIcSt11char_traitsIcESaIcEE5c_strEv(ptr noundef nonnull align 8 dereferenceable(32) %15) #6
  invoke void (ptr, ptr, ...) @_ZN32pxrInternal_v0_24__pxrReserved__16ArchStringPrintfB5cxx11EPKcz(ptr dead_on_unwind writable sret(%"class.std::__cxx11::basic_string") align 8 %8, ptr noundef @.str.4, ptr noundef %14, ptr noundef %16)
          to label %17 unwind label %36

17:                                               ; preds = %3
  %18 = call noundef i64 @_ZNKSt7__cxx1112basic_stringIcSt11char_traitsIcESaIcEE4sizeEv(ptr noundef nonnull align 8 dereferenceable(32) %8) #6
  %19 = add i64 %18, 1
  %20 = alloca i8, i64 %19, align 16
  store ptr %20, ptr %11, align 8
  %21 = load ptr, ptr %11, align 8
  %22 = call noundef ptr @_ZNKSt7__cxx1112basic_stringIcSt11char_traitsIcESaIcEE5c_strEv(ptr noundef nonnull align 8 dereferenceable(32) %8) #6
  %23 = call noundef i64 @_ZNKSt7__cxx1112basic_stringIcSt11char_traitsIcESaIcEE4sizeEv(ptr noundef nonnull align 8 dereferenceable(32) %8) #6
  %24 = add i64 %23, 1
  %25 = call ptr @strncpy(ptr noundef %21, ptr noundef %22, i64 noundef %24) #6
  %26 = load ptr, ptr %11, align 8
  %27 = call ptr @mkdtemp(ptr noundef %26) #6
  store ptr %27, ptr %12, align 8
  %28 = load ptr, ptr %12, align 8
  %29 = icmp ne ptr %28, null
  br i1 %29, label %30, label %44

30:                                               ; preds = %17
  %31 = load ptr, ptr %12, align 8
  %32 = call i32 @chmod(ptr noundef %31, i32 noundef 488) #6
  %33 = load ptr, ptr %12, align 8
  %34 = invoke noundef nonnull align 8 dereferenceable(32) ptr @_ZNSt7__cxx1112basic_stringIcSt11char_traitsIcESaIcEEaSEPKc(ptr noundef nonnull align 8 dereferenceable(32) %0, ptr noundef %33)
          to label %35 unwind label %40

35:                                               ; preds = %30
  br label %44

36:                                               ; preds = %3
  %37 = landingpad { ptr, i32 }
          cleanup
  %38 = extractvalue { ptr, i32 } %37, 0
  store ptr %38, ptr %9, align 8
  %39 = extractvalue { ptr, i32 } %37, 1
  store i32 %39, ptr %10, align 4
  br label %48

40:                                               ; preds = %30
  %41 = landingpad { ptr, i32 }
          cleanup
  %42 = extractvalue { ptr, i32 } %41, 0
  store ptr %42, ptr %9, align 8
  %43 = extractvalue { ptr, i32 } %41, 1
  store i32 %43, ptr %10, align 4
  call void @_ZNSt7__cxx1112basic_stringIcSt11char_traitsIcESaIcEED1Ev(ptr noundef nonnull align 8 dereferenceable(32) %8) #6
  br label %48

44:                                               ; preds = %35, %17
  store i1 true, ptr %7, align 1
  call void @_ZNSt7__cxx1112basic_stringIcSt11char_traitsIcESaIcEED1Ev(ptr noundef nonnull align 8 dereferenceable(32) %8) #6
  %45 = load i1, ptr %7, align 1
  br i1 %45, label %47, label %46

46:                                               ; preds = %44
  call void @_ZNSt7__cxx1112basic_stringIcSt11char_traitsIcESaIcEED1Ev(ptr noundef nonnull align 8 dereferenceable(32) %0) #6
  br label %47

47:                                               ; preds = %46, %44
  ret void

48:                                               ; preds = %40, %36
  call void @_ZNSt7__cxx1112basic_stringIcSt11char_traitsIcESaIcEED1Ev(ptr noundef nonnull align 8 dereferenceable(32) %0) #6
  br label %49

49:                                               ; preds = %48
  %50 = load ptr, ptr %9, align 8
  %51 = load i32, ptr %10, align 4
  %52 = insertvalue { ptr, i32 } poison, ptr %50, 0
  %53 = insertvalue { ptr, i32 } %52, i32 %51, 1
  resume { ptr, i32 } %53
}